target datalayout = "e-m:e-p270:32:32-p271:32:32-p272:64:64-i64:64-i128:128-f80:128-n8:16:32:64-S128"
target triple = "x86_64-pc-linux-gnu"

%struct.emap_s = type { %struct.rtree_s }
%struct.rtree_s = type { ptr, %struct.malloc_mutex_s, [262144 x %struct.rtree_node_elm_s] }
%struct.malloc_mutex_s = type { %union.anon }
%union.anon = type { %struct.anon }
%struct.anon = type { %struct.mutex_prof_data_t, %struct.atomic_b_t, %union.pthread_mutex_t }
%struct.mutex_prof_data_t = type { %struct.nstime_t, %struct.nstime_t, i64, i64, i32, %struct.atomic_u32_t, i64, ptr, i64 }
%struct.nstime_t = type { i64 }
%struct.atomic_u32_t = type { i32 }
%struct.atomic_b_t = type { i8 }
%union.pthread_mutex_t = type { %struct.__pthread_mutex_s }
%struct.__pthread_mutex_s = type { i32, i32, i32, i32, i32, i16, i16, %struct.__pthread_internal_list }
%struct.__pthread_internal_list = type { ptr, ptr }
%struct.rtree_node_elm_s = type { %struct.atomic_p_t }
%struct.atomic_p_t = type { ptr }
%struct.edata_s = type { i64, ptr, %union.anon.1, ptr, i64, %union.anon.2, %union.anon.5 }
%union.anon.1 = type { i64 }
%union.anon.2 = type { %union.anon.4 }
%union.anon.4 = type { %struct.edata_heap_link_t }
%struct.edata_heap_link_t = type { %struct.phn_link_s }
%struct.phn_link_s = type { ptr, ptr, ptr }
%union.anon.5 = type { %struct.slab_data_s }
%struct.slab_data_s = type { [8 x i64] }
%struct.rtree_leaf_elm_s = type { %struct.atomic_p_t }
%struct.rtree_contents_s = type { ptr, %struct.rtree_metadata_s }
%struct.rtree_metadata_s = type { i32, i32, i8, i8 }
%struct.emap_prepare_s = type { ptr, ptr, ptr, ptr }

; Function Attrs: alwaysinline nounwind uwtable
define internal i32 @atomic_enum_to_builtin(i32 noundef %0) #3 {
  %2 = alloca i32, align 4
  %3 = alloca i32, align 4
  store i32 %0, ptr %3, align 4, !tbaa !18
  %4 = load i32, ptr %3, align 4, !tbaa !18
  switch i32 %4, label %10 [
    i32 0, label %5
    i32 1, label %6
    i32 2, label %7
    i32 3, label %8
    i32 4, label %9
  ]

5:                                                ; preds = %1
  store i32 0, ptr %2, align 4
  br label %12

6:                                                ; preds = %1
  store i32 2, ptr %2, align 4
  br label %12

7:                                                ; preds = %1
  store i32 3, ptr %2, align 4
  br label %12

8:                                                ; preds = %1
  store i32 4, ptr %2, align 4
  br label %12

9:                                                ; preds = %1
  store i32 5, ptr %2, align 4
  br label %12

10:                                               ; preds = %1
  br label %11

11:                                               ; preds = %10
  unreachable

12:                                               ; preds = %5, %6, %7, %8, %9
  %13 = load i32, ptr %2, align 4
  ret i32 %13
}

; Function Attrs: alwaysinline nounwind uwtable
define internal void @atomic_store_p(ptr noundef %0, ptr noundef %1, i32 noundef %2) #3 {
  %4 = alloca ptr, align 8
  %5 = alloca ptr, align 8
  %6 = alloca i32, align 4
  store ptr %0, ptr %4, align 8, !tbaa !40
  store ptr %1, ptr %5, align 8, !tbaa !40
  store i32 %2, ptr %6, align 4, !tbaa !18
  %7 = load ptr, ptr %4, align 8, !tbaa !40
  %8 = getelementptr inbounds nuw %struct.atomic_p_t, ptr %7, i32 0, i32 0
  %9 = load i32, ptr %6, align 4, !tbaa !18
  %10 = call i32 @atomic_enum_to_builtin(i32 noundef %9)
  switch i32 %10, label %11 [
    i32 3, label %13
    i32 5, label %15
  ]

11:                                               ; preds = %3
  %12 = load i64, ptr %5, align 8
  store atomic i64 %12, ptr %8 monotonic, align 8
  br label %17

13:                                               ; preds = %3
  %14 = load i64, ptr %5, align 8
  store atomic i64 %14, ptr %8 release, align 8
  br label %17

15:                                               ; preds = %3
  %16 = load i64, ptr %5, align 8
  store atomic i64 %16, ptr %8 seq_cst, align 8
  br label %17

17:                                               ; preds = %15, %13, %11
  ret void
}

; Function Attrs: alwaysinline nounwind uwtable
define internal i64 @rtree_leaf_elm_bits_encode(ptr noundef byval(%struct.rtree_contents_s) align 8 %0) #3 {
  %2 = alloca i64, align 8
  %3 = alloca i64, align 8
  %4 = alloca i64, align 8
  %5 = alloca i64, align 8
  %6 = alloca i64, align 8
  %7 = alloca i64, align 8
  br label %8

8:                                                ; preds = %1
  br label %9

9:                                                ; preds = %8
  call void @llvm.lifetime.start.p0(i64 8, ptr %2) #8
  %10 = getelementptr inbounds nuw %struct.rtree_contents_s, ptr %0, i32 0, i32 0
  %11 = load ptr, ptr %10, align 8, !tbaa !41
  %12 = ptrtoint ptr %11 to i64
  %13 = and i64 %12, 281474976710655
  store i64 %13, ptr %2, align 8, !tbaa !34
  call void @llvm.lifetime.start.p0(i64 8, ptr %3) #8
  %14 = getelementptr inbounds nuw %struct.rtree_contents_s, ptr %0, i32 0, i32 1
  %15 = getelementptr inbounds nuw %struct.rtree_metadata_s, ptr %14, i32 0, i32 0
  %16 = load i32, ptr %15, align 8, !tbaa !46
  %17 = zext i32 %16 to i64
  %18 = shl i64 %17, 48
  store i64 %18, ptr %3, align 8, !tbaa !34
  call void @llvm.lifetime.start.p0(i64 8, ptr %4) #8
  %19 = getelementptr inbounds nuw %struct.rtree_contents_s, ptr %0, i32 0, i32 1
  %20 = getelementptr inbounds nuw %struct.rtree_metadata_s, ptr %19, i32 0, i32 3
  %21 = load i8, ptr %20, align 1, !tbaa !47, !range !12, !noundef !13
  %22 = trunc i8 %21 to i1
  %23 = zext i1 %22 to i64
  store i64 %23, ptr %4, align 8, !tbaa !34
  call void @llvm.lifetime.start.p0(i64 8, ptr %5) #8
  %24 = getelementptr inbounds nuw %struct.rtree_contents_s, ptr %0, i32 0, i32 1
  %25 = getelementptr inbounds nuw %struct.rtree_metadata_s, ptr %24, i32 0, i32 2
  %26 = load i8, ptr %25, align 8, !tbaa !48, !range !12, !noundef !13
  %27 = trunc i8 %26 to i1
  %28 = zext i1 %27 to i64
  %29 = shl i64 %28, 1
  store i64 %29, ptr %5, align 8, !tbaa !34
  call void @llvm.lifetime.start.p0(i64 8, ptr %6) #8
  %30 = getelementptr inbounds nuw %struct.rtree_contents_s, ptr %0, i32 0, i32 1
  %31 = getelementptr inbounds nuw %struct.rtree_metadata_s, ptr %30, i32 0, i32 1
  %32 = load i32, ptr %31, align 4, !tbaa !49
  %33 = zext i32 %32 to i64
  %34 = shl i64 %33, 2
  store i64 %34, ptr %6, align 8, !tbaa !34
  call void @llvm.lifetime.start.p0(i64 8, ptr %7) #8
  %35 = load i64, ptr %3, align 8, !tbaa !34
  %36 = load i64, ptr %6, align 8, !tbaa !34
  %37 = or i64 %35, %36
  %38 = load i64, ptr %5, align 8, !tbaa !34
  %39 = or i64 %37, %38
  %40 = load i64, ptr %4, align 8, !tbaa !34
  %41 = or i64 %39, %40
  store i64 %41, ptr %7, align 8, !tbaa !34
  br label %42

42:                                               ; preds = %9
  br label %43

43:                                               ; preds = %42
  br label %44

44:                                               ; preds = %43
  %45 = load i64, ptr %2, align 8, !tbaa !34
  %46 = load i64, ptr %7, align 8, !tbaa !34
  %47 = or i64 %45, %46
  call void @llvm.lifetime.end.p0(i64 8, ptr %7) #8
  call void @llvm.lifetime.end.p0(i64 8, ptr %6) #8
  call void @llvm.lifetime.end.p0(i64 8, ptr %5) #8
  call void @llvm.lifetime.end.p0(i64 8, ptr %4) #8
  call void @llvm.lifetime.end.p0(i64 8, ptr %3) #8
  call void @llvm.lifetime.end.p0(i64 8, ptr %2) #8
  ret i64 %47
}

; Function Attrs: alwaysinline nounwind uwtable
define internal void @rtree_leaf_elm_write_commit(ptr noundef %0, ptr noundef %1, ptr noundef %2, ptr noundef %3, i32 noundef %4) #3 {
  %6 = alloca ptr, align 8
  %7 = alloca ptr, align 8
  %8 = alloca ptr, align 8
  %9 = alloca ptr, align 8
  %10 = alloca i32, align 4
  store ptr %0, ptr %6, align 8, !tbaa !14
  store ptr %1, ptr %7, align 8, !tbaa !32
  store ptr %2, ptr %8, align 8, !tbaa !22
  store ptr %3, ptr %9, align 8, !tbaa !40
  store i32 %4, ptr %10, align 4, !tbaa !18
  %11 = load ptr, ptr %8, align 8, !tbaa !22
  %12 = getelementptr inbounds nuw %struct.rtree_leaf_elm_s, ptr %11, i32 0, i32 0
  %13 = load ptr, ptr %9, align 8, !tbaa !40
  call void @atomic_store_p(ptr noundef %12, ptr noundef %13, i32 noundef 2)
  ret void
}

; Function Attrs: alwaysinline nounwind uwtable
define internal void @rtree_contents_encode(ptr noundef byval(%struct.rtree_contents_s) align 8 %0, ptr noundef %1, ptr noundef %2) #3 {
  %4 = alloca ptr, align 8
  %5 = alloca ptr, align 8
  store ptr %1, ptr %4, align 8, !tbaa !40
  store ptr %2, ptr %5, align 8, !tbaa !66
  %6 = call i64 @rtree_leaf_elm_bits_encode(ptr noundef byval(%struct.rtree_contents_s) align 8 %0)
  %7 = inttoptr i64 %6 to ptr
  %8 = load ptr, ptr %4, align 8, !tbaa !40
  store ptr %7, ptr %8, align 8, !tbaa !40
  ret void
}

; Function Attrs: alwaysinline nounwind uwtable
define internal void @rtree_leaf_elm_write(ptr noundef %0, ptr noundef %1, ptr noundef %2, ptr noundef byval(%struct.rtree_contents_s) align 8 %3) #3 {
  %5 = alloca ptr, align 8
  %6 = alloca ptr, align 8
  %7 = alloca ptr, align 8
  %8 = alloca ptr, align 8
  %9 = alloca i32, align 4
  store ptr %0, ptr %5, align 8, !tbaa !14
  store ptr %1, ptr %6, align 8, !tbaa !32
  store ptr %2, ptr %7, align 8, !tbaa !22
  br label %10

10:                                               ; preds = %4
  br label %11

11:                                               ; preds = %10
  call void @llvm.lifetime.start.p0(i64 8, ptr %8) #8
  call void @llvm.lifetime.start.p0(i64 4, ptr %9) #8
  call void @rtree_contents_encode(ptr noundef byval(%struct.rtree_contents_s) align 8 %3, ptr noundef %8, ptr noundef %9)
  %12 = load ptr, ptr %5, align 8, !tbaa !14
  %13 = load ptr, ptr %6, align 8, !tbaa !32
  %14 = load ptr, ptr %7, align 8, !tbaa !22
  %15 = load ptr, ptr %8, align 8, !tbaa !40
  %16 = load i32, ptr %9, align 4, !tbaa !18
  call void @rtree_leaf_elm_write_commit(ptr noundef %12, ptr noundef %13, ptr noundef %14, ptr noundef %15, i32 noundef %16)
  call void @llvm.lifetime.end.p0(i64 4, ptr %9) #8
  call void @llvm.lifetime.end.p0(i64 8, ptr %8) #8
  ret void
}

; Function Attrs: inlinehint nounwind uwtable
define internal i32 @edata_state_get(ptr noundef %0) #2 {
  %2 = alloca ptr, align 8
  store ptr %0, ptr %2, align 8, !tbaa !16
  %3 = load ptr, ptr %2, align 8, !tbaa !16
  %4 = getelementptr inbounds nuw %struct.edata_s, ptr %3, i32 0, i32 0
  %5 = load i64, ptr %4, align 8, !tbaa !28
  %6 = and i64 %5, 917504
  %7 = lshr i64 %6, 17
  %8 = trunc i64 %7 to i32
  ret i32 %8
}

; Function Attrs: inlinehint nounwind uwtable
define internal zeroext i1 @edata_is_head_get(ptr noundef %0) #2 {
  %2 = alloca ptr, align 8
  store ptr %0, ptr %2, align 8, !tbaa !16
  %3 = load ptr, ptr %2, align 8, !tbaa !16
  %4 = getelementptr inbounds nuw %struct.edata_s, ptr %3, i32 0, i32 0
  %5 = load i64, ptr %4, align 8, !tbaa !28
  %6 = and i64 %5, 17592186044416
  %7 = lshr i64 %6, 44
  %8 = icmp ne i64 %7, 0
  ret i1 %8
}

; Function Attrs: nounwind uwtable
define internal void @emap_rtree_write_acquired(ptr noundef %0, ptr noundef %1, ptr noundef %2, ptr noundef %3, ptr noundef %4, i32 noundef %5, i1 noundef zeroext %6) #0 {
  %8 = alloca ptr, align 8
  %9 = alloca ptr, align 8
  %10 = alloca ptr, align 8
  %11 = alloca ptr, align 8
  %12 = alloca ptr, align 8
  %13 = alloca i32, align 4
  %14 = alloca i8, align 1
  %15 = alloca %struct.rtree_contents_s, align 8
  store ptr %0, ptr %8, align 8, !tbaa !14
  store ptr %1, ptr %9, align 8, !tbaa !3
  store ptr %2, ptr %10, align 8, !tbaa !22
  store ptr %3, ptr %11, align 8, !tbaa !22
  store ptr %4, ptr %12, align 8, !tbaa !16
  store i32 %5, ptr %13, align 4, !tbaa !18
  %16 = zext i1 %6 to i8
  store i8 %16, ptr %14, align 1, !tbaa !10
  call void @llvm.lifetime.start.p0(i64 24, ptr %15) #8
  %17 = load ptr, ptr %12, align 8, !tbaa !16
  %18 = getelementptr inbounds nuw %struct.rtree_contents_s, ptr %15, i32 0, i32 0
  store ptr %17, ptr %18, align 8, !tbaa !41
  %19 = load i32, ptr %13, align 4, !tbaa !18
  %20 = getelementptr inbounds nuw %struct.rtree_contents_s, ptr %15, i32 0, i32 1
  %21 = getelementptr inbounds nuw %struct.rtree_metadata_s, ptr %20, i32 0, i32 0
  store i32 %19, ptr %21, align 8, !tbaa !46
  %22 = load i8, ptr %14, align 1, !tbaa !10, !range !12, !noundef !13
  %23 = trunc i8 %22 to i1
  %24 = getelementptr inbounds nuw %struct.rtree_contents_s, ptr %15, i32 0, i32 1
  %25 = getelementptr inbounds nuw %struct.rtree_metadata_s, ptr %24, i32 0, i32 3
  %26 = zext i1 %23 to i8
  store i8 %26, ptr %25, align 1, !tbaa !47
  %27 = load ptr, ptr %12, align 8, !tbaa !16
  %28 = icmp eq ptr %27, null
  br i1 %28, label %29, label %30

29:                                               ; preds = %7
  br label %34

30:                                               ; preds = %7
  %31 = load ptr, ptr %12, align 8, !tbaa !16
  %32 = call zeroext i1 @edata_is_head_get(ptr noundef %31)
  %33 = zext i1 %32 to i32
  br label %34

34:                                               ; preds = %30, %29
  %35 = phi i32 [ 0, %29 ], [ %33, %30 ]
  %36 = icmp ne i32 %35, 0
  %37 = getelementptr inbounds nuw %struct.rtree_contents_s, ptr %15, i32 0, i32 1
  %38 = getelementptr inbounds nuw %struct.rtree_metadata_s, ptr %37, i32 0, i32 2
  %39 = zext i1 %36 to i8
  store i8 %39, ptr %38, align 8, !tbaa !48
  %40 = load ptr, ptr %12, align 8, !tbaa !16
  %41 = icmp eq ptr %40, null
  br i1 %41, label %42, label %43

42:                                               ; preds = %34
  br label %46

43:                                               ; preds = %34
  %44 = load ptr, ptr %12, align 8, !tbaa !16
  %45 = call i32 @edata_state_get(ptr noundef %44)
  br label %46

46:                                               ; preds = %43, %42
  %47 = phi i32 [ 0, %42 ], [ %45, %43 ]
  %48 = getelementptr inbounds nuw %struct.rtree_contents_s, ptr %15, i32 0, i32 1
  %49 = getelementptr inbounds nuw %struct.rtree_metadata_s, ptr %48, i32 0, i32 1
  store i32 %47, ptr %49, align 4, !tbaa !49
  %50 = load ptr, ptr %8, align 8, !tbaa !14
  %51 = load ptr, ptr %9, align 8, !tbaa !3
  %52 = getelementptr inbounds nuw %struct.emap_s, ptr %51, i32 0, i32 0
  %53 = load ptr, ptr %10, align 8, !tbaa !22
  call void @rtree_leaf_elm_write(ptr noundef %50, ptr noundef %52, ptr noundef %53, ptr noundef byval(%struct.rtree_contents_s) align 8 %15)
  %54 = load ptr, ptr %11, align 8, !tbaa !22
  %55 = icmp ne ptr %54, null
  br i1 %55, label %56, label %61

56:                                               ; preds = %46
  %57 = load ptr, ptr %8, align 8, !tbaa !14
  %58 = load ptr, ptr %9, align 8, !tbaa !3
  %59 = getelementptr inbounds nuw %struct.emap_s, ptr %58, i32 0, i32 0
  %60 = load ptr, ptr %11, align 8, !tbaa !22
  call void @rtree_leaf_elm_write(ptr noundef %57, ptr noundef %59, ptr noundef %60, ptr noundef byval(%struct.rtree_contents_s) align 8 %15)
  br label %61

61:                                               ; preds = %56, %46
  call void @llvm.lifetime.end.p0(i64 24, ptr %15) #8
  ret void
}

; Function Attrs: nounwind uwtable
define void @duckdb_je_emap_split_commit(ptr noundef %0, ptr noundef %1, ptr noundef %2, ptr noundef %3, i64 noundef %4, ptr noundef %5, i64 noundef %6) #0 {
  %8 = alloca ptr, align 8
  %9 = alloca ptr, align 8
  %10 = alloca ptr, align 8
  %11 = alloca ptr, align 8
  %12 = alloca i64, align 8
  %13 = alloca ptr, align 8
  %14 = alloca i64, align 8
  store ptr %0, ptr %8, align 8, !tbaa !14
  store ptr %1, ptr %9, align 8, !tbaa !3
  store ptr %2, ptr %10, align 8, !tbaa !50
  store ptr %3, ptr %11, align 8, !tbaa !16
  store i64 %4, ptr %12, align 8, !tbaa !34
  store ptr %5, ptr %13, align 8, !tbaa !16
  store i64 %6, ptr %14, align 8, !tbaa !34
  %15 = load ptr, ptr %8, align 8, !tbaa !14
  %16 = load ptr, ptr %9, align 8, !tbaa !3
  %17 = load ptr, ptr %10, align 8, !tbaa !50
  %18 = getelementptr inbounds nuw %struct.emap_prepare_s, ptr %17, i32 0, i32 0
  %19 = load ptr, ptr %18, align 8, !tbaa !52
  %20 = load ptr, ptr %10, align 8, !tbaa !50
  %21 = getelementptr inbounds nuw %struct.emap_prepare_s, ptr %20, i32 0, i32 1
  %22 = load ptr, ptr %21, align 8, !tbaa !54
  %23 = load ptr, ptr %11, align 8, !tbaa !16
  call void @emap_rtree_write_acquired(ptr noundef %15, ptr noundef %16, ptr noundef %19, ptr noundef %22, ptr noundef %23, i32 noundef 232, i1 noundef zeroext false)
  %24 = load ptr, ptr %8, align 8, !tbaa !14
  %25 = load ptr, ptr %9, align 8, !tbaa !3
  %26 = load ptr, ptr %10, align 8, !tbaa !50
  %27 = getelementptr inbounds nuw %struct.emap_prepare_s, ptr %26, i32 0, i32 2
  %28 = load ptr, ptr %27, align 8, !tbaa !55
  %29 = load ptr, ptr %10, align 8, !tbaa !50
  %30 = getelementptr inbounds nuw %struct.emap_prepare_s, ptr %29, i32 0, i32 3
  %31 = load ptr, ptr %30, align 8, !tbaa !56
  %32 = load ptr, ptr %13, align 8, !tbaa !16
  call void @emap_rtree_write_acquired(ptr noundef %24, ptr noundef %25, ptr noundef %28, ptr noundef %31, ptr noundef %32, i32 noundef 232, i1 noundef zeroext false)
  ret void
}